target datalayout = "e-m:e-p270:32:32-p271:32:32-p272:64:64-i64:64-i128:128-f80:128-n8:16:32:64-S128"
target triple = "x86_64-pc-linux-gnu"

; Function Attrs: nounwind uwtable
define internal i32 @H5LT_read_dataset_numerical(i64 noundef %0, ptr noundef %1, i64 noundef %2, ptr noundef %3) #0 {
  %5 = alloca i32, align 4
  %6 = alloca i64, align 8
  %7 = alloca ptr, align 8
  %8 = alloca i64, align 8
  %9 = alloca ptr, align 8
  %10 = alloca i64, align 8
  %11 = alloca i32, align 4
  store i64 %0, ptr %6, align 8, !tbaa !3
  store ptr %1, ptr %7, align 8, !tbaa !7
  store i64 %2, ptr %8, align 8, !tbaa !3
  store ptr %3, ptr %9, align 8, !tbaa !14
  call void @llvm.lifetime.start.p0(i64 8, ptr %10) #11
  %12 = load ptr, ptr %7, align 8, !tbaa !7
  %13 = icmp eq ptr %12, null
  br i1 %13, label %14, label %15

14:                                               ; preds = %4
  store i32 -1, ptr %5, align 4
  store i32 1, ptr %11, align 4
  br label %37

15:                                               ; preds = %4
  %16 = load i64, ptr %6, align 8, !tbaa !3
  %17 = load ptr, ptr %7, align 8, !tbaa !7
  %18 = call i64 @H5Dopen2(i64 noundef %16, ptr noundef %17, i64 noundef 0)
  store i64 %18, ptr %10, align 8, !tbaa !3
  %19 = icmp slt i64 %18, 0
  br i1 %19, label %20, label %21

20:                                               ; preds = %15
  store i32 -1, ptr %5, align 4
  store i32 1, ptr %11, align 4
  br label %37

21:                                               ; preds = %15
  %22 = load i64, ptr %10, align 8, !tbaa !3
  %23 = load i64, ptr %8, align 8, !tbaa !3
  %24 = load ptr, ptr %9, align 8, !tbaa !14
  %25 = call i32 @H5Dread(i64 noundef %22, i64 noundef %23, i64 noundef 0, i64 noundef 0, i64 noundef 0, ptr noundef %24)
  %26 = icmp slt i32 %25, 0
  br i1 %26, label %27, label %28

27:                                               ; preds = %21
  br label %34

28:                                               ; preds = %21
  %29 = load i64, ptr %10, align 8, !tbaa !3
  %30 = call i32 @H5Dclose(i64 noundef %29)
  %31 = icmp ne i32 %30, 0
  br i1 %31, label %32, label %33

32:                                               ; preds = %28
  store i32 -1, ptr %5, align 4
  store i32 1, ptr %11, align 4
  br label %37

33:                                               ; preds = %28
  store i32 0, ptr %5, align 4
  store i32 1, ptr %11, align 4
  br label %37

34:                                               ; preds = %27
  %35 = load i64, ptr %10, align 8, !tbaa !3
  %36 = call i32 @H5Dclose(i64 noundef %35)
  store i32 -1, ptr %5, align 4
  store i32 1, ptr %11, align 4
  br label %37

37:                                               ; preds = %34, %33, %32, %20, %14
  call void @llvm.lifetime.end.p0(i64 8, ptr %10) #11
  %38 = load i32, ptr %5, align 4
  ret i32 %38
}

; Function Attrs: nounwind uwtable
define i32 @H5LTread_dataset(i64 noundef %0, ptr noundef %1, i64 noundef %2, ptr noundef %3) #0 {
  %5 = alloca i64, align 8
  %6 = alloca ptr, align 8
  %7 = alloca i64, align 8
  %8 = alloca ptr, align 8
  store i64 %0, ptr %5, align 8, !tbaa !3
  store ptr %1, ptr %6, align 8, !tbaa !7
  store i64 %2, ptr %7, align 8, !tbaa !3
  store ptr %3, ptr %8, align 8, !tbaa !14
  %9 = load i64, ptr %5, align 8, !tbaa !3
  %10 = load ptr, ptr %6, align 8, !tbaa !7
  %11 = load i64, ptr %7, align 8, !tbaa !3
  %12 = load ptr, ptr %8, align 8, !tbaa !14
  %13 = call i32 @H5LT_read_dataset_numerical(i64 noundef %9, ptr noundef %10, i64 noundef %11, ptr noundef %12)
  ret i32 %13
}