; Function Attrs: nounwind uwtable
define range(i32 -1, 1) i32 @H5LTread_dataset(i64 noundef %0, ptr noundef %1, i64 noundef %2, ptr noundef %3) local_unnamed_addr #0 {
  %5 = icmp eq ptr %1, null
  br i1 %5, label %H5LT_read_dataset_numerical.exit, label %6

6:                                                ; preds = %4
  %7 = tail call i64 @H5Dopen2(i64 noundef %0, ptr noundef nonnull %1, i64 noundef 0) #20
  %8 = icmp slt i64 %7, 0
  br i1 %8, label %H5LT_read_dataset_numerical.exit, label %9

9:                                                ; preds = %6
  %10 = tail call i32 @H5Dread(i64 noundef %7, i64 noundef %2, i64 noundef 0, i64 noundef 0, i64 noundef 0, ptr noundef %3) #20
  %11 = icmp slt i32 %10, 0
  %12 = tail call i32 @H5Dclose(i64 noundef %7) #20
  br i1 %11, label %H5LT_read_dataset_numerical.exit, label %13

13:                                               ; preds = %9
  %.not.i = icmp ne i32 %12, 0
  %..i = sext i1 %.not.i to i32
  br label %H5LT_read_dataset_numerical.exit

H5LT_read_dataset_numerical.exit:                 ; preds = %4, %6, %9, %13
  %.0.i = phi i32 [ -1, %4 ], [ -1, %6 ], [ %..i, %13 ], [ -1, %9 ]
  ret i32 %.0.i
}